target datalayout = "e-m:e-p270:32:32-p271:32:32-p272:64:64-i64:64-i128:128-f80:128-n8:16:32:64-S128"
target triple = "x86_64-pc-linux-gnu"

%struct._lv_font_manager_t = type { %struct.lv_ll_t, %struct.lv_ll_t, %struct.lv_ll_t, ptr }
%struct.lv_ll_t = type { i32, ptr, ptr }

; Function Attrs: nounwind uwtable
define ptr @lv_font_manager_create(i32 noundef %0) #0 {
  %2 = alloca ptr, align 8
  %3 = alloca i32, align 4
  %4 = alloca ptr, align 8
  %5 = alloca i32, align 4
  store i32 %0, ptr %3, align 4, !tbaa !3
  br label %6

6:                                                ; preds = %1
  %7 = load i32, ptr %3, align 4, !tbaa !3
  %8 = icmp ugt i32 %7, 0
  br i1 %8, label %13, label %9

9:                                                ; preds = %6
  br label %10

10:                                               ; preds = %9
  br label %11

11:                                               ; preds = %10
  br label %12

12:                                               ; preds = %11, %12
  br label %12

13:                                               ; preds = %6
  br label %14

14:                                               ; preds = %13
  call void @llvm.lifetime.start.p0(i64 8, ptr %4) #6
  %15 = call ptr @lv_malloc_zeroed(i64 noundef 80)
  store ptr %15, ptr %4, align 8, !tbaa !7
  br label %16

16:                                               ; preds = %14
  %17 = load ptr, ptr %4, align 8, !tbaa !7
  %18 = icmp ne ptr %17, null
  br i1 %18, label %25, label %19

19:                                               ; preds = %16
  br label %20

20:                                               ; preds = %19
  br label %21

21:                                               ; preds = %20
  br label %22

22:                                               ; preds = %21
  br label %23

23:                                               ; preds = %24, %22
  br label %24

24:                                               ; preds = %23
  br label %23

25:                                               ; preds = %16
  br label %26

26:                                               ; preds = %25
  br label %27

27:                                               ; preds = %26
  %28 = load ptr, ptr %4, align 8, !tbaa !7
  %29 = icmp ne ptr %28, null
  br i1 %29, label %34, label %30

30:                                               ; preds = %27
  br label %31

31:                                               ; preds = %30
  br label %32

32:                                               ; preds = %31
  br label %33

33:                                               ; preds = %32
  store ptr null, ptr %2, align 8
  store i32 1, ptr %5, align 4
  br label %49

34:                                               ; preds = %27
  %35 = load ptr, ptr %4, align 8, !tbaa !7
  %36 = getelementptr inbounds nuw %struct._lv_font_manager_t, ptr %35, i32 0, i32 0
  call void @lv_ll_init(ptr noundef %36, i32 noundef 72)
  %37 = load ptr, ptr %4, align 8, !tbaa !7
  %38 = getelementptr inbounds nuw %struct._lv_font_manager_t, ptr %37, i32 0, i32 1
  call void @lv_ll_init(ptr noundef %38, i32 noundef 72)
  %39 = load ptr, ptr %4, align 8, !tbaa !7
  %40 = getelementptr inbounds nuw %struct._lv_font_manager_t, ptr %39, i32 0, i32 2
  call void @lv_ll_init(ptr noundef %40, i32 noundef 24)
  %41 = load i32, ptr %3, align 4, !tbaa !3
  %42 = call ptr @lv_font_manager_recycle_create(i32 noundef %41)
  %43 = load ptr, ptr %4, align 8, !tbaa !7
  %44 = getelementptr inbounds nuw %struct._lv_font_manager_t, ptr %43, i32 0, i32 3
  store ptr %42, ptr %44, align 8, !tbaa !9
  br label %45

45:                                               ; preds = %34
  br label %46

46:                                               ; preds = %45
  br label %47

47:                                               ; preds = %46
  %48 = load ptr, ptr %4, align 8, !tbaa !7
  store ptr %48, ptr %2, align 8
  store i32 1, ptr %5, align 4
  br label %49

49:                                               ; preds = %47, %33
  call void @llvm.lifetime.end.p0(i64 8, ptr %4) #6
  %50 = load ptr, ptr %2, align 8
  ret ptr %50
}