; Function Attrs: nounwind uwtable
define nonnull ptr @lv_font_manager_create(i32 noundef %0) local_unnamed_addr #0 {
  %.not = icmp eq i32 %0, 0
  br i1 %.not, label %.preheader, label %2

.preheader:                                       ; preds = %1, %.preheader
  br label %.preheader

2:                                                ; preds = %1
  %3 = tail call ptr @lv_malloc_zeroed(i64 noundef 80) #5
  %.not11 = icmp eq ptr %3, null
  br i1 %.not11, label %.preheader12, label %4

.preheader12:                                     ; preds = %2, %.preheader12
  br label %.preheader12

4:                                                ; preds = %2
  tail call void @lv_ll_init(ptr noundef nonnull %3, i32 noundef 72) #5
  %5 = getelementptr inbounds nuw i8, ptr %3, i64 24
  tail call void @lv_ll_init(ptr noundef nonnull %5, i32 noundef 72) #5
  %6 = getelementptr inbounds nuw i8, ptr %3, i64 48
  tail call void @lv_ll_init(ptr noundef nonnull %6, i32 noundef 24) #5
  %7 = tail call ptr @lv_font_manager_recycle_create(i32 noundef %0) #5
  %8 = getelementptr inbounds nuw i8, ptr %3, i64 72
  store ptr %7, ptr %8, align 8, !tbaa !3
  ret ptr %3
}